target datalayout = "e-m:e-p270:32:32-p271:32:32-p272:64:64-i64:64-i128:128-f80:128-n8:16:32:64-S128"
target triple = "x86_64-pc-linux-gnu"

%struct._cmsTagPluginChunkType = type { ptr }
%struct._cmsPluginBaseStruct = type { i32, i32, i32, ptr }
%struct._cmsTagLinkedList_st = type { i32, %struct.cmsTagDescriptor, ptr }
%struct.cmsTagDescriptor = type { i32, i32, [20 x i32], ptr }
%struct.cmsPluginTag = type { %struct._cmsPluginBaseStruct, i32, %struct.cmsTagDescriptor }

; Function Attrs: nounwind uwtable
define hidden i32 @_cmsRegisterTagPlugin(ptr noundef %0, ptr noundef %1) #0 {
  %3 = alloca i32, align 4
  %4 = alloca ptr, align 8
  %5 = alloca ptr, align 8
  %6 = alloca ptr, align 8
  %7 = alloca ptr, align 8
  %8 = alloca ptr, align 8
  store ptr %0, ptr %4, align 8
  store ptr %1, ptr %5, align 8
  %9 = load ptr, ptr %5, align 8
  store ptr %9, ptr %6, align 8
  %10 = load ptr, ptr %4, align 8
  %11 = call ptr @_cmsContextGetClientChunk(ptr noundef %10, i32 noundef 9)
  store ptr %11, ptr %8, align 8
  %12 = load ptr, ptr %5, align 8
  %13 = icmp eq ptr %12, null
  br i1 %13, label %14, label %17

14:                                               ; preds = %2
  %15 = load ptr, ptr %8, align 8
  %16 = getelementptr inbounds %struct._cmsTagPluginChunkType, ptr %15, i32 0, i32 0
  store ptr null, ptr %16, align 8
  store i32 1, ptr %3, align 4
  br label %41

17:                                               ; preds = %2
  %18 = load ptr, ptr %4, align 8
  %19 = call ptr @_cmsPluginMalloc(ptr noundef %18, i32 noundef 112)
  store ptr %19, ptr %7, align 8
  %20 = load ptr, ptr %7, align 8
  %21 = icmp eq ptr %20, null
  br i1 %21, label %22, label %23

22:                                               ; preds = %17
  store i32 0, ptr %3, align 4
  br label %41

23:                                               ; preds = %17
  %24 = load ptr, ptr %6, align 8
  %25 = getelementptr inbounds %struct.cmsPluginTag, ptr %24, i32 0, i32 1
  %26 = load i32, ptr %25, align 8
  %27 = load ptr, ptr %7, align 8
  %28 = getelementptr inbounds %struct._cmsTagLinkedList_st, ptr %27, i32 0, i32 0
  store i32 %26, ptr %28, align 8
  %29 = load ptr, ptr %7, align 8
  %30 = getelementptr inbounds %struct._cmsTagLinkedList_st, ptr %29, i32 0, i32 1
  %31 = load ptr, ptr %6, align 8
  %32 = getelementptr inbounds %struct.cmsPluginTag, ptr %31, i32 0, i32 2
  call void @llvm.memcpy.p0.p0.i64(ptr align 8 %30, ptr align 8 %32, i64 96, i1 false)
  %33 = load ptr, ptr %8, align 8
  %34 = getelementptr inbounds %struct._cmsTagPluginChunkType, ptr %33, i32 0, i32 0
  %35 = load ptr, ptr %34, align 8
  %36 = load ptr, ptr %7, align 8
  %37 = getelementptr inbounds %struct._cmsTagLinkedList_st, ptr %36, i32 0, i32 2
  store ptr %35, ptr %37, align 8
  %38 = load ptr, ptr %7, align 8
  %39 = load ptr, ptr %8, align 8
  %40 = getelementptr inbounds %struct._cmsTagPluginChunkType, ptr %39, i32 0, i32 0
  store ptr %38, ptr %40, align 8
  store i32 1, ptr %3, align 4
  br label %41

41:                                               ; preds = %23, %22, %14
  %42 = load i32, ptr %3, align 4
  ret i32 %42
}