; Function Attrs: nounwind uwtable
define hidden range(i32 0, 2) i32 @_cmsRegisterTagPlugin(ptr noundef %0, ptr noundef readonly %1) local_unnamed_addr #0 {
  %3 = tail call ptr @_cmsContextGetClientChunk(ptr noundef %0, i32 noundef 9) #13
  %4 = icmp eq ptr %1, null
  br i1 %4, label %.sink.split, label %5

5:                                                ; preds = %2
  %6 = tail call ptr @_cmsPluginMalloc(ptr noundef %0, i32 noundef 112) #13
  %7 = icmp eq ptr %6, null
  br i1 %7, label %15, label %8

8:                                                ; preds = %5
  %9 = getelementptr inbounds i8, ptr %1, i64 24
  %10 = load i32, ptr %9, align 8
  store i32 %10, ptr %6, align 8
  %11 = getelementptr inbounds i8, ptr %6, i64 8
  %12 = getelementptr inbounds i8, ptr %1, i64 32
  tail call void @llvm.memcpy.p0.p0.i64(ptr noundef nonnull align 8 dereferenceable(96) %11, ptr noundef nonnull align 8 dereferenceable(96) %12, i64 96, i1 false)
  %13 = load ptr, ptr %3, align 8
  %14 = getelementptr inbounds i8, ptr %6, i64 104
  store ptr %13, ptr %14, align 8
  br label %.sink.split

.sink.split:                                      ; preds = %2, %8
  %.sink = phi ptr [ %6, %8 ], [ null, %2 ]
  store ptr %.sink, ptr %3, align 8
  br label %15

15:                                               ; preds = %.sink.split, %5
  %.0 = phi i32 [ 0, %5 ], [ 1, %.sink.split ]
  ret i32 %.0
}